target datalayout = "e-m:e-p270:32:32-p271:32:32-p272:64:64-i64:64-i128:128-f80:128-n8:16:32:64-S128"
target triple = "x86_64-pc-linux-gnu"

%struct.timespec = type { i64, i64 }

@mc_path = internal global ptr null, align 8
@ume_check_interval = internal global i32 0, align 4
@shutdown_time = internal global i64 0, align 8
@.str.100 = private unnamed_addr constant [28 x i8] c"node_features_knl_generic.c\00", align 1
@__func__._ume_agent = private unnamed_addr constant [11 x i8] c"_ume_agent\00", align 1
@.str.138 = private unnamed_addr constant [25 x i8] c"%s/mc%d/csrow%d/ue_count\00", align 1
@.str.139 = private unnamed_addr constant [42 x i8] c"UME error detected. Notified %d job steps\00", align 1

; Function Attrs: inlinehint nounwind willreturn memory(read) uwtable
define available_externally i32 @atoi(ptr noundef nonnull %0) #7 {
  %2 = alloca ptr, align 8
  store ptr %0, ptr %2, align 8
  %3 = load ptr, ptr %2, align 8
  %4 = call i64 @strtol(ptr noundef %3, ptr noundef null, i32 noundef 10) #9
  %5 = trunc i64 %4 to i32
  ret i32 %5
}

; Function Attrs: nounwind uwtable
define internal ptr @_ume_agent(ptr noundef %0) #0 {
  %2 = alloca ptr, align 8
  %3 = alloca %struct.timespec, align 8
  %4 = alloca i32, align 4
  %5 = alloca i32, align 4
  %6 = alloca i32, align 4
  %7 = alloca i32, align 4
  %8 = alloca i32, align 4
  %9 = alloca ptr, align 8
  %10 = alloca i32, align 4
  %11 = alloca i32, align 4
  %12 = alloca i32, align 4
  %13 = alloca [8 x i8], align 1
  %14 = alloca ptr, align 8
  %15 = alloca i64, align 8
  store ptr %0, ptr %2, align 8
  call void @llvm.lifetime.start.p0(i64 16, ptr %3) #9
  call void @llvm.lifetime.start.p0(i64 4, ptr %4) #9
  call void @llvm.lifetime.start.p0(i64 4, ptr %5) #9
  call void @llvm.lifetime.start.p0(i64 4, ptr %6) #9
  call void @llvm.lifetime.start.p0(i64 4, ptr %7) #9
  call void @llvm.lifetime.start.p0(i64 4, ptr %8) #9
  store i32 -1, ptr %8, align 4
  call void @llvm.lifetime.start.p0(i64 8, ptr %9) #9
  store ptr null, ptr %9, align 8
  call void @llvm.lifetime.start.p0(i64 4, ptr %10) #9
  store i32 0, ptr %10, align 4
  call void @llvm.lifetime.start.p0(i64 4, ptr %11) #9
  store i32 0, ptr %11, align 4
  call void @llvm.lifetime.start.p0(i64 4, ptr %12) #9
  call void @llvm.lifetime.start.p0(i64 8, ptr %13) #9
  call void @llvm.lifetime.start.p0(i64 8, ptr %14) #9
  call void @llvm.lifetime.start.p0(i64 8, ptr %15) #9
  %16 = load ptr, ptr @mc_path, align 8
  %17 = call i64 @strlen(ptr noundef %16) #12
  %18 = add i64 %17, 32
  %19 = trunc i64 %18 to i32
  store i32 %19, ptr %12, align 4
  %20 = load i32, ptr %12, align 4
  %21 = sext i32 %20 to i64
  %22 = call ptr @slurm_xcalloc(i64 noundef 1, i64 noundef %21, i1 noundef zeroext true, i1 noundef zeroext false, ptr noundef @.str.100, i32 noundef 728, ptr noundef @__func__._ume_agent)
  store ptr %22, ptr %14, align 8
  store i32 0, ptr %5, align 4
  br label %23

23:                                               ; preds = %63, %1
  store i32 0, ptr %6, align 4
  br label %24

24:                                               ; preds = %55, %23
  %25 = load i32, ptr %10, align 4
  %26 = load i32, ptr %11, align 4
  %27 = icmp eq i32 %25, %26
  br i1 %27, label %28, label %35

28:                                               ; preds = %24
  %29 = load i32, ptr %11, align 4
  %30 = add nsw i32 %29, 64
  store i32 %30, ptr %11, align 4
  %31 = load i32, ptr %11, align 4
  %32 = sext i32 %31 to i64
  %33 = mul i64 4, %32
  %34 = call ptr @slurm_xrecalloc(ptr noundef %9, i64 noundef 1, i64 noundef %33, i1 noundef zeroext true, i1 noundef zeroext false, ptr noundef @.str.100, i32 noundef 733, ptr noundef @__func__._ume_agent)
  store ptr %34, ptr %9, align 8
  br label %35

35:                                               ; preds = %28, %24
  %36 = load ptr, ptr %14, align 8
  %37 = load i32, ptr %12, align 4
  %38 = sext i32 %37 to i64
  %39 = load ptr, ptr @mc_path, align 8
  %40 = load i32, ptr %5, align 4
  %41 = load i32, ptr %6, align 4
  %42 = call i32 (ptr, i64, ptr, ...) @snprintf(ptr noundef %36, i64 noundef %38, ptr noundef @.str.138, ptr noundef %39, i32 noundef %40, i32 noundef %41) #9
  %43 = load ptr, ptr %14, align 8
  %44 = call i32 (ptr, i32, ...) @open(ptr noundef %43, i32 noundef 0)
  %45 = load ptr, ptr %9, align 8
  %46 = load i32, ptr %10, align 4
  %47 = sext i32 %46 to i64
  %48 = getelementptr inbounds i32, ptr %45, i64 %47
  store i32 %44, ptr %48, align 4
  %49 = icmp sge i32 %44, 0
  br i1 %49, label %50, label %53

50:                                               ; preds = %35
  %51 = load i32, ptr %10, align 4
  %52 = add nsw i32 %51, 1
  store i32 %52, ptr %10, align 4
  br label %54

53:                                               ; preds = %35
  br label %58

54:                                               ; preds = %50
  br label %55

55:                                               ; preds = %54
  %56 = load i32, ptr %6, align 4
  %57 = add nsw i32 %56, 1
  store i32 %57, ptr %6, align 4
  br label %24, !llvm.loop !23

58:                                               ; preds = %53
  %59 = load i32, ptr %6, align 4
  %60 = icmp eq i32 %59, 0
  br i1 %60, label %61, label %62

61:                                               ; preds = %58
  br label %66

62:                                               ; preds = %58
  br label %63

63:                                               ; preds = %62
  %64 = load i32, ptr %5, align 4
  %65 = add nsw i32 %64, 1
  store i32 %65, ptr %5, align 4
  br label %23, !llvm.loop !24

66:                                               ; preds = %61
  call void @slurm_xfree(ptr noundef %14)
  br label %67

67:                                               ; preds = %123, %66
  %68 = load i64, ptr @shutdown_time, align 8
  %69 = icmp ne i64 %68, 0
  %70 = xor i1 %69, true
  br i1 %70, label %71, label %134

71:                                               ; preds = %67
  store i32 0, ptr %7, align 4
  store i32 0, ptr %4, align 4
  br label %72

72:                                               ; preds = %100, %71
  %73 = load i32, ptr %4, align 4
  %74 = load i32, ptr %10, align 4
  %75 = icmp slt i32 %73, %74
  br i1 %75, label %76, label %103

76:                                               ; preds = %72
  %77 = load ptr, ptr %9, align 8
  %78 = load i32, ptr %4, align 4
  %79 = sext i32 %78 to i64
  %80 = getelementptr inbounds i32, ptr %77, i64 %79
  %81 = load i32, ptr %80, align 4
  %82 = call i64 @lseek(i32 noundef %81, i64 noundef 0, i32 noundef 0) #9
  %83 = load ptr, ptr %9, align 8
  %84 = load i32, ptr %4, align 4
  %85 = sext i32 %84 to i64
  %86 = getelementptr inbounds i32, ptr %83, i64 %85
  %87 = load i32, ptr %86, align 4
  %88 = getelementptr inbounds [8 x i8], ptr %13, i64 0, i64 0
  %89 = call i64 @read(i32 noundef %87, ptr noundef %88, i64 noundef 7)
  store i64 %89, ptr %15, align 8
  %90 = load i64, ptr %15, align 8
  %91 = icmp sle i64 %90, 0
  br i1 %91, label %92, label %93

92:                                               ; preds = %76
  br label %100

93:                                               ; preds = %76
  %94 = load i64, ptr %15, align 8
  %95 = getelementptr inbounds [8 x i8], ptr %13, i64 0, i64 %94
  store i8 0, ptr %95, align 1
  %96 = getelementptr inbounds [8 x i8], ptr %13, i64 0, i64 0
  %97 = call i32 @atoi(ptr noundef %96) #12
  %98 = load i32, ptr %7, align 4
  %99 = add nsw i32 %98, %97
  store i32 %99, ptr %7, align 4
  br label %100

100:                                              ; preds = %93, %92
  %101 = load i32, ptr %4, align 4
  %102 = add nsw i32 %101, 1
  store i32 %102, ptr %4, align 4
  br label %72, !llvm.loop !25

103:                                              ; preds = %72
  %104 = load i64, ptr @shutdown_time, align 8
  %105 = icmp ne i64 %104, 0
  br i1 %105, label %106, label %107

106:                                              ; preds = %103
  br label %134

107:                                              ; preds = %103
  %108 = load i32, ptr %8, align 4
  %109 = load i32, ptr %7, align 4
  %110 = icmp slt i32 %108, %109
  br i1 %110, label %111, label %118

111:                                              ; preds = %107
  %112 = load i32, ptr %8, align 4
  %113 = icmp ne i32 %112, -1
  br i1 %113, label %114, label %118

114:                                              ; preds = %111
  %115 = call i32 @ume_notify()
  store i32 %115, ptr %4, align 4
  %116 = load i32, ptr %4, align 4
  %117 = call i32 (ptr, ...) @error(ptr noundef @.str.139, i32 noundef %116)
  br label %118

118:                                              ; preds = %114, %111, %107
  %119 = load i32, ptr %7, align 4
  store i32 %119, ptr %8, align 4
  %120 = load i64, ptr @shutdown_time, align 8
  %121 = icmp ne i64 %120, 0
  br i1 %121, label %122, label %123

122:                                              ; preds = %118
  br label %134

123:                                              ; preds = %118
  %124 = load i32, ptr @ume_check_interval, align 4
  %125 = udiv i32 %124, 1000000
  %126 = zext i32 %125 to i64
  %127 = getelementptr inbounds nuw %struct.timespec, ptr %3, i32 0, i32 0
  store i64 %126, ptr %127, align 8
  %128 = load i32, ptr @ume_check_interval, align 4
  %129 = urem i32 %128, 1000000
  %130 = mul i32 %129, 1000
  %131 = zext i32 %130 to i64
  %132 = getelementptr inbounds nuw %struct.timespec, ptr %3, i32 0, i32 1
  store i64 %131, ptr %132, align 8
  %133 = call i32 @nanosleep(ptr noundef %3, ptr noundef null)
  br label %67, !llvm.loop !26

134:                                              ; preds = %122, %106, %67
  store i32 0, ptr %4, align 4
  br label %135

135:                                              ; preds = %146, %134
  %136 = load i32, ptr %4, align 4
  %137 = load i32, ptr %10, align 4
  %138 = icmp slt i32 %136, %137
  br i1 %138, label %139, label %149

139:                                              ; preds = %135
  %140 = load ptr, ptr %9, align 8
  %141 = load i32, ptr %4, align 4
  %142 = sext i32 %141 to i64
  %143 = getelementptr inbounds i32, ptr %140, i64 %142
  %144 = load i32, ptr %143, align 4
  %145 = call i32 @close(i32 noundef %144)
  br label %146

146:                                              ; preds = %139
  %147 = load i32, ptr %4, align 4
  %148 = add nsw i32 %147, 1
  store i32 %148, ptr %4, align 4
  br label %135, !llvm.loop !27

149:                                              ; preds = %135
  call void @slurm_xfree(ptr noundef %9)
  call void @llvm.lifetime.end.p0(i64 8, ptr %15) #9
  call void @llvm.lifetime.end.p0(i64 8, ptr %14) #9
  call void @llvm.lifetime.end.p0(i64 8, ptr %13) #9
  call void @llvm.lifetime.end.p0(i64 4, ptr %12) #9
  call void @llvm.lifetime.end.p0(i64 4, ptr %11) #9
  call void @llvm.lifetime.end.p0(i64 4, ptr %10) #9
  call void @llvm.lifetime.end.p0(i64 8, ptr %9) #9
  call void @llvm.lifetime.end.p0(i64 4, ptr %8) #9
  call void @llvm.lifetime.end.p0(i64 4, ptr %7) #9
  call void @llvm.lifetime.end.p0(i64 4, ptr %6) #9
  call void @llvm.lifetime.end.p0(i64 4, ptr %5) #9
  call void @llvm.lifetime.end.p0(i64 4, ptr %4) #9
  call void @llvm.lifetime.end.p0(i64 16, ptr %3) #9
  ret ptr null
}