; Function Attrs: nounwind uwtable
define internal noalias noundef ptr @_ume_agent(ptr readnone captures(none) %0) #0 {
  %2 = alloca %struct.timespec, align 8
  %3 = alloca ptr, align 8
  %4 = alloca [8 x i8], align 1
  %5 = alloca ptr, align 8
  call void @llvm.lifetime.start.p0(i64 16, ptr nonnull %2) #14
  call void @llvm.lifetime.start.p0(i64 8, ptr nonnull %3) #14
  store ptr null, ptr %3, align 8
  call void @llvm.lifetime.start.p0(i64 8, ptr nonnull %4) #14
  call void @llvm.lifetime.start.p0(i64 8, ptr nonnull %5) #14
  %6 = load ptr, ptr @mc_path, align 8
  %7 = tail call i64 @strlen(ptr noundef nonnull dereferenceable(1) %6) #16
  %8 = shl i64 %7, 32
  %sext = add i64 %8, 137438953472
  %9 = ashr exact i64 %sext, 32
  %10 = tail call ptr @slurm_xcalloc(i64 noundef 1, i64 noundef %9, i1 noundef zeroext true, i1 noundef zeroext false, ptr noundef nonnull @.str.100, i32 noundef 728, ptr noundef nonnull @__func__._ume_agent) #14
  store ptr %10, ptr %5, align 8
  br label %11

11:                                               ; preds = %33, %1
  %12 = phi ptr [ %10, %1 ], [ %26, %33 ]
  %.034 = phi i32 [ 0, %1 ], [ %16, %33 ]
  %.032 = phi i32 [ 0, %1 ], [ %.2, %33 ]
  %.031 = phi i32 [ 0, %1 ], [ %35, %33 ]
  %13 = sext i32 %.034 to i64
  br label %14

14:                                               ; preds = %31, %11
  %15 = phi ptr [ %26, %31 ], [ %12, %11 ]
  %indvars.iv56 = phi i32 [ %indvars.iv.next57, %31 ], [ %.034, %11 ]
  %indvars.iv = phi i64 [ %indvars.iv.next, %31 ], [ %13, %11 ]
  %.039 = phi i32 [ %32, %31 ], [ 0, %11 ]
  %.133 = phi i32 [ %.2, %31 ], [ %.032, %11 ]
  %16 = trunc nsw i64 %indvars.iv to i32
  %17 = icmp eq i32 %.133, %16
  br i1 %17, label %18, label %23

18:                                               ; preds = %14
  %19 = add nsw i32 %.133, 64
  %20 = sext i32 %19 to i64
  %21 = shl nsw i64 %20, 2
  %22 = call ptr @slurm_xrecalloc(ptr noundef nonnull %3, i64 noundef 1, i64 noundef %21, i1 noundef zeroext true, i1 noundef zeroext false, ptr noundef nonnull @.str.100, i32 noundef 733, ptr noundef nonnull @__func__._ume_agent) #14
  store ptr %22, ptr %3, align 8
  br label %23

23:                                               ; preds = %18, %14
  %.2 = phi i32 [ %19, %18 ], [ %.133, %14 ]
  %24 = load ptr, ptr @mc_path, align 8
  %25 = call i32 (ptr, i64, ptr, ...) @snprintf(ptr noundef %15, i64 noundef %9, ptr noundef nonnull @.str.138, ptr noundef %24, i32 noundef %.031, i32 noundef %.039) #14
  %26 = load ptr, ptr %5, align 8
  %27 = call i32 (ptr, i32, ...) @open(ptr noundef %26, i32 noundef 0) #14
  %28 = load ptr, ptr %3, align 8
  %29 = getelementptr inbounds i32, ptr %28, i64 %indvars.iv
  store i32 %27, ptr %29, align 4
  %30 = icmp sgt i32 %27, -1
  br i1 %30, label %31, label %33

31:                                               ; preds = %23
  %indvars.iv.next = add nsw i64 %indvars.iv, 1
  %32 = add nuw nsw i32 %.039, 1
  %indvars.iv.next57 = add i32 %indvars.iv56, 1
  br label %14, !llvm.loop !21

33:                                               ; preds = %23
  %34 = icmp eq i32 %.039, 0
  %35 = add nuw nsw i32 %.031, 1
  br i1 %34, label %36, label %11, !llvm.loop !22

36:                                               ; preds = %33
  call void @slurm_xfree(ptr noundef nonnull %5) #14
  %37 = load i64, ptr @shutdown_time, align 8
  %.not45 = icmp eq i64 %37, 0
  br i1 %.not45, label %.preheader.lr.ph, label %._crit_edge47

.preheader.lr.ph:                                 ; preds = %36
  %38 = icmp sgt i64 %indvars.iv, 0
  %39 = getelementptr inbounds nuw i8, ptr %2, i64 8
  br i1 %38, label %.preheader.us.preheader, label %.preheader.preheader

.preheader.us.preheader:                          ; preds = %.preheader.lr.ph
  %wide.trip.count = zext i32 %indvars.iv56 to i64
  br label %.preheader.us

.preheader.us:                                    ; preds = %.preheader.us.preheader, %.thread
  %.03646.us = phi i32 [ %.138.us, %.thread ], [ -1, %.preheader.us.preheader ]
  br label %55

40:                                               ; preds = %._crit_edge.us
  %41 = icmp slt i32 %.03646.us, %.138.us
  %42 = icmp ne i32 %.03646.us, -1
  %or.cond.us = and i1 %42, %41
  br i1 %or.cond.us, label %43, label %.thread

43:                                               ; preds = %40
  %44 = call i32 @ume_notify() #14
  %45 = call i32 (ptr, ...) @error(ptr noundef nonnull @.str.139, i32 noundef %44) #14
  %.pre = load i64, ptr @shutdown_time, align 8
  %46 = icmp eq i64 %.pre, 0
  br i1 %46, label %.thread, label %._crit_edge47

.thread:                                          ; preds = %40, %43
  %47 = load i32, ptr @ume_check_interval, align 4
  %48 = udiv i32 %47, 1000000
  %49 = zext nneg i32 %48 to i64
  store i64 %49, ptr %2, align 8
  %50 = urem i32 %47, 1000000
  %51 = mul nuw nsw i32 %50, 1000
  %52 = zext nneg i32 %51 to i64
  store i64 %52, ptr %39, align 8
  %53 = call i32 @nanosleep(ptr noundef nonnull %2, ptr noundef null) #14
  %54 = load i64, ptr @shutdown_time, align 8
  %.not.us = icmp eq i64 %54, 0
  br i1 %.not.us, label %.preheader.us, label %._crit_edge47, !llvm.loop !23

55:                                               ; preds = %.preheader.us, %70
  %indvars.iv53 = phi i64 [ 0, %.preheader.us ], [ %indvars.iv.next54, %70 ]
  %.03743.us = phi i32 [ 0, %.preheader.us ], [ %.138.us, %70 ]
  %56 = load ptr, ptr %3, align 8
  %57 = getelementptr inbounds nuw i32, ptr %56, i64 %indvars.iv53
  %58 = load i32, ptr %57, align 4
  %59 = call i64 @lseek(i32 noundef %58, i64 noundef 0, i32 noundef 0) #14
  %60 = load ptr, ptr %3, align 8
  %61 = getelementptr inbounds nuw i32, ptr %60, i64 %indvars.iv53
  %62 = load i32, ptr %61, align 4
  %63 = call i64 @read(i32 noundef %62, ptr noundef nonnull %4, i64 noundef 7) #14
  %64 = icmp slt i64 %63, 1
  br i1 %64, label %70, label %65

65:                                               ; preds = %55
  %66 = getelementptr inbounds nuw [8 x i8], ptr %4, i64 0, i64 %63
  store i8 0, ptr %66, align 1
  %67 = call i64 @strtol(ptr noundef nonnull captures(none) %4, ptr noundef null, i32 noundef 10) #14
  %68 = trunc i64 %67 to i32
  %69 = add nsw i32 %.03743.us, %68
  br label %70

70:                                               ; preds = %65, %55
  %.138.us = phi i32 [ %.03743.us, %55 ], [ %69, %65 ]
  %indvars.iv.next54 = add nuw nsw i64 %indvars.iv53, 1
  %exitcond.not = icmp eq i64 %indvars.iv.next54, %wide.trip.count
  br i1 %exitcond.not, label %._crit_edge.us, label %55, !llvm.loop !24

._crit_edge.us:                                   ; preds = %70
  %71 = load i64, ptr @shutdown_time, align 8
  %.not41.us = icmp eq i64 %71, 0
  br i1 %.not41.us, label %40, label %._crit_edge47

.preheader.preheader:                             ; preds = %.preheader.lr.ph, %.preheader.preheader
  %72 = load i32, ptr @ume_check_interval, align 4
  %73 = udiv i32 %72, 1000000
  %74 = zext nneg i32 %73 to i64
  store i64 %74, ptr %2, align 8
  %75 = urem i32 %72, 1000000
  %76 = mul nuw nsw i32 %75, 1000
  %77 = zext nneg i32 %76 to i64
  store i64 %77, ptr %39, align 8
  %78 = call i32 @nanosleep(ptr noundef nonnull %2, ptr noundef null) #14
  %79 = load i64, ptr @shutdown_time, align 8
  %.not = icmp eq i64 %79, 0
  br i1 %.not, label %.preheader.preheader, label %._crit_edge47, !llvm.loop !23

._crit_edge47:                                    ; preds = %.preheader.preheader, %.thread, %._crit_edge.us, %43, %36
  %80 = icmp sgt i64 %indvars.iv, 0
  br i1 %80, label %.lr.ph.preheader, label %._crit_edge

.lr.ph.preheader:                                 ; preds = %._crit_edge47
  %wide.trip.count62 = zext i32 %indvars.iv56 to i64
  br label %.lr.ph

.lr.ph:                                           ; preds = %.lr.ph.preheader, %.lr.ph
  %indvars.iv58 = phi i64 [ 0, %.lr.ph.preheader ], [ %indvars.iv.next59, %.lr.ph ]
  %81 = load ptr, ptr %3, align 8
  %82 = getelementptr inbounds nuw i32, ptr %81, i64 %indvars.iv58
  %83 = load i32, ptr %82, align 4
  %84 = call i32 @close(i32 noundef %83) #14
  %indvars.iv.next59 = add nuw nsw i64 %indvars.iv58, 1
  %exitcond63.not = icmp eq i64 %indvars.iv.next59, %wide.trip.count62
  br i1 %exitcond63.not, label %._crit_edge, label %.lr.ph, !llvm.loop !25

._crit_edge:                                      ; preds = %.lr.ph, %._crit_edge47
  call void @slurm_xfree(ptr noundef nonnull %3) #14
  call void @llvm.lifetime.end.p0(i64 8, ptr nonnull %5) #14
  call void @llvm.lifetime.end.p0(i64 8, ptr nonnull %4) #14
  call void @llvm.lifetime.end.p0(i64 8, ptr nonnull %3) #14
  call void @llvm.lifetime.end.p0(i64 16, ptr nonnull %2) #14
  ret ptr null
}